; ModuleID = '60/1931.c'
source_filename = "60/1931.c"
target datalayout = "e-m:e-p270:32:32-p271:32:32-p272:64:64-i64:64-f80:128-n8:16:32:64-S128"
target triple = "x86_64-pc-linux-gnu"

@.str = private unnamed_addr constant [3 x i8] c"%d\00", align 1
@.str.1 = private unnamed_addr constant [7 x i8] c"%d %d\0A\00", align 1
@.str.2 = private unnamed_addr constant [6 x i8] c"empty\00", align 1

; Function Attrs: noinline nounwind uwtable
define dso_local i32 @main() #0 {
  %1 = alloca i32, align 4
  %2 = alloca i32, align 4
  %3 = alloca i32, align 4
  %4 = alloca i32, align 4
  %5 = alloca i32, align 4
  %6 = alloca i32*, align 8
  store i32 0, i32* %1, align 4
  %7 = call i32 (i8*, ...) @__isoc99_scanf(i8* getelementptr inbounds ([3 x i8], [3 x i8]* @.str, i64 0, i64 0), i32* %2)
  %8 = load i32, i32* %2, align 4
  %9 = add nsw i32 %8, 1
  %10 = sdiv i32 %9, 2
  %11 = sext i32 %10 to i64
  %12 = mul i64 %11, 4
  %13 = call noalias i8* @malloc(i64 %12) #3
  %14 = bitcast i8* %13 to i32*
  store i32* %14, i32** %6, align 8
  store i32 0, i32* %4, align 4
  br label %15

15:                                               ; preds = %26, %0
  %16 = load i32, i32* %4, align 4
  %17 = load i32, i32* %2, align 4
  %18 = add nsw i32 %17, 1
  %19 = sdiv i32 %18, 2
  %20 = icmp slt i32 %16, %19
  br i1 %20, label %21, label %29

21:                                               ; preds = %15
  %22 = load i32*, i32** %6, align 8
  %23 = load i32, i32* %4, align 4
  %24 = sext i32 %23 to i64
  %25 = getelementptr inbounds i32, i32* %22, i64 %24
  store i32 1, i32* %25, align 4
  br label %26

26:                                               ; preds = %21
  %27 = load i32, i32* %4, align 4
  %28 = add nsw i32 %27, 1
  store i32 %28, i32* %4, align 4
  br label %15

29:                                               ; preds = %15
  store i32 1, i32* %4, align 4
  br label %30

30:                                               ; preds = %61, %29
  %31 = load i32, i32* %4, align 4
  %32 = load i32, i32* %2, align 4
  %33 = add nsw i32 %32, 1
  %34 = sdiv i32 %33, 2
  %35 = icmp slt i32 %31, %34
  br i1 %35, label %36, label %64

36:                                               ; preds = %30
  store i32 2, i32* %5, align 4
  br label %37

37:                                               ; preds = %57, %36
  %38 = load i32, i32* %5, align 4
  %39 = load i32, i32* %4, align 4
  %40 = mul nsw i32 2, %39
  %41 = add nsw i32 %40, 1
  %42 = sdiv i32 %41, 2
  %43 = icmp slt i32 %38, %42
  br i1 %43, label %44, label %60

44:                                               ; preds = %37
  %45 = load i32, i32* %4, align 4
  %46 = mul nsw i32 2, %45
  %47 = add nsw i32 %46, 1
  %48 = load i32, i32* %5, align 4
  %49 = srem i32 %47, %48
  %50 = icmp eq i32 %49, 0
  br i1 %50, label %51, label %56

51:                                               ; preds = %44
  %52 = load i32*, i32** %6, align 8
  %53 = load i32, i32* %4, align 4
  %54 = sext i32 %53 to i64
  %55 = getelementptr inbounds i32, i32* %52, i64 %54
  store i32 0, i32* %55, align 4
  br label %60

56:                                               ; preds = %44
  br label %57

57:                                               ; preds = %56
  %58 = load i32, i32* %5, align 4
  %59 = add nsw i32 %58, 1
  store i32 %59, i32* %5, align 4
  br label %37

60:                                               ; preds = %51, %37
  br label %61

61:                                               ; preds = %60
  %62 = load i32, i32* %4, align 4
  %63 = add nsw i32 %62, 1
  store i32 %63, i32* %4, align 4
  br label %30

64:                                               ; preds = %30
  store i32 0, i32* %3, align 4
  store i32 2, i32* %4, align 4
  br label %65

65:                                               ; preds = %95, %64
  %66 = load i32, i32* %4, align 4
  %67 = load i32, i32* %2, align 4
  %68 = add nsw i32 %67, 1
  %69 = sdiv i32 %68, 2
  %70 = icmp slt i32 %66, %69
  br i1 %70, label %71, label %98

71:                                               ; preds = %65
  %72 = load i32*, i32** %6, align 8
  %73 = load i32, i32* %4, align 4
  %74 = sub nsw i32 %73, 1
  %75 = sext i32 %74 to i64
  %76 = getelementptr inbounds i32, i32* %72, i64 %75
  %77 = load i32, i32* %76, align 4
  %78 = icmp eq i32 %77, 1
  br i1 %78, label %79, label %94

79:                                               ; preds = %71
  %80 = load i32*, i32** %6, align 8
  %81 = load i32, i32* %4, align 4
  %82 = sext i32 %81 to i64
  %83 = getelementptr inbounds i32, i32* %80, i64 %82
  %84 = load i32, i32* %83, align 4
  %85 = icmp eq i32 %84, 1
  br i1 %85, label %86, label %94

86:                                               ; preds = %79
  store i32 1, i32* %3, align 4
  %87 = load i32, i32* %4, align 4
  %88 = mul nsw i32 2, %87
  %89 = sub nsw i32 %88, 1
  %90 = load i32, i32* %4, align 4
  %91 = mul nsw i32 2, %90
  %92 = add nsw i32 %91, 1
  %93 = call i32 (i8*, ...) @printf(i8* getelementptr inbounds ([7 x i8], [7 x i8]* @.str.1, i64 0, i64 0), i32 %89, i32 %92)
  br label %94

94:                                               ; preds = %86, %79, %71
  br label %95

95:                                               ; preds = %94
  %96 = load i32, i32* %4, align 4
  %97 = add nsw i32 %96, 1
  store i32 %97, i32* %4, align 4
  br label %65

98:                                               ; preds = %65
  %99 = load i32, i32* %3, align 4
  %100 = icmp eq i32 %99, 0
  br i1 %100, label %101, label %103

101:                                              ; preds = %98
  %102 = call i32 (i8*, ...) @printf(i8* getelementptr inbounds ([6 x i8], [6 x i8]* @.str.2, i64 0, i64 0))
  br label %103

103:                                              ; preds = %101, %98
  %104 = load i32*, i32** %6, align 8
  %105 = bitcast i32* %104 to i8*
  call void @free(i8* %105) #3
  %106 = load i32, i32* %1, align 4
  ret i32 %106
}

declare dso_local i32 @__isoc99_scanf(i8*, ...) #1

; Function Attrs: nounwind
declare dso_local noalias i8* @malloc(i64) #2

declare dso_local i32 @printf(i8*, ...) #1

; Function Attrs: nounwind
declare dso_local void @free(i8*) #2


!llvm.module.flags = !{!0}
!llvm.ident = !{!1}

!0 = !{i32 1, !"wchar_size", i32 4}
!1 = !{!"clang version 10.0.0-4ubuntu1 "}
