; ModuleID = 'source-C-CXX/59/1931.c'
source_filename = "source-C-CXX/59/1931.c"
target datalayout = "e-m:e-p270:32:32-p271:32:32-p272:64:64-i64:64-f80:128-n8:16:32:64-S128"
target triple = "x86_64-pc-linux-gnu"

@.str = private unnamed_addr constant [3 x i8] c"%d\00", align 1
@.str.1 = private unnamed_addr constant [7 x i8] c"%d %d\0A\00", align 1
@.str.2 = private unnamed_addr constant [6 x i8] c"empty\00", align 1

; Function Attrs: nounwind sspstrong uwtable
define dso_local i32 @main() local_unnamed_addr #0 {
  %1 = alloca i32, align 4
  %2 = bitcast i32* %1 to i8*
  call void @llvm.lifetime.start.p0i8(i64 4, i8* nonnull %2) #6
  %3 = call i32 (i8*, ...) @__isoc99_scanf(i8* getelementptr inbounds ([3 x i8], [3 x i8]* @.str, i64 0, i64 0), i32* nonnull %1)
  %4 = load i32, i32* %1, align 4, !tbaa !5
  %5 = add nsw i32 %4, 1
  %6 = sdiv i32 %5, 2
  %7 = sext i32 %6 to i64
  %8 = shl nsw i64 %7, 2
  %9 = call noalias align 16 i8* @malloc(i64 %8) #6
  %10 = bitcast i8* %9 to i32*
  %11 = icmp sgt i32 %4, 0
  br i1 %11, label %12, label %151

12:                                               ; preds = %0
  %13 = call i32 @llvm.smax.i32(i32 %6, i32 1)
  %14 = zext i32 %13 to i64
  %15 = icmp ult i32 %13, 8
  br i1 %15, label %85, label %16

16:                                               ; preds = %12
  %17 = and i64 %14, 2147483640
  %18 = add nsw i64 %17, -8
  %19 = lshr exact i64 %18, 3
  %20 = add nuw nsw i64 %19, 1
  %21 = and i64 %20, 7
  %22 = icmp ult i64 %18, 56
  br i1 %22, label %70, label %23

23:                                               ; preds = %16
  %24 = and i64 %20, 4611686018427387896
  br label %25

25:                                               ; preds = %25, %23
  %26 = phi i64 [ 0, %23 ], [ %67, %25 ]
  %27 = phi i64 [ %24, %23 ], [ %68, %25 ]
  %28 = getelementptr inbounds i32, i32* %10, i64 %26
  %29 = bitcast i32* %28 to <4 x i32>*
  store <4 x i32> <i32 1, i32 1, i32 1, i32 1>, <4 x i32>* %29, align 16, !tbaa !5
  %30 = getelementptr inbounds i32, i32* %28, i64 4
  %31 = bitcast i32* %30 to <4 x i32>*
  store <4 x i32> <i32 1, i32 1, i32 1, i32 1>, <4 x i32>* %31, align 16, !tbaa !5
  %32 = or i64 %26, 8
  %33 = getelementptr inbounds i32, i32* %10, i64 %32
  %34 = bitcast i32* %33 to <4 x i32>*
  store <4 x i32> <i32 1, i32 1, i32 1, i32 1>, <4 x i32>* %34, align 16, !tbaa !5
  %35 = getelementptr inbounds i32, i32* %33, i64 4
  %36 = bitcast i32* %35 to <4 x i32>*
  store <4 x i32> <i32 1, i32 1, i32 1, i32 1>, <4 x i32>* %36, align 16, !tbaa !5
  %37 = or i64 %26, 16
  %38 = getelementptr inbounds i32, i32* %10, i64 %37
  %39 = bitcast i32* %38 to <4 x i32>*
  store <4 x i32> <i32 1, i32 1, i32 1, i32 1>, <4 x i32>* %39, align 16, !tbaa !5
  %40 = getelementptr inbounds i32, i32* %38, i64 4
  %41 = bitcast i32* %40 to <4 x i32>*
  store <4 x i32> <i32 1, i32 1, i32 1, i32 1>, <4 x i32>* %41, align 16, !tbaa !5
  %42 = or i64 %26, 24
  %43 = getelementptr inbounds i32, i32* %10, i64 %42
  %44 = bitcast i32* %43 to <4 x i32>*
  store <4 x i32> <i32 1, i32 1, i32 1, i32 1>, <4 x i32>* %44, align 16, !tbaa !5
  %45 = getelementptr inbounds i32, i32* %43, i64 4
  %46 = bitcast i32* %45 to <4 x i32>*
  store <4 x i32> <i32 1, i32 1, i32 1, i32 1>, <4 x i32>* %46, align 16, !tbaa !5
  %47 = or i64 %26, 32
  %48 = getelementptr inbounds i32, i32* %10, i64 %47
  %49 = bitcast i32* %48 to <4 x i32>*
  store <4 x i32> <i32 1, i32 1, i32 1, i32 1>, <4 x i32>* %49, align 16, !tbaa !5
  %50 = getelementptr inbounds i32, i32* %48, i64 4
  %51 = bitcast i32* %50 to <4 x i32>*
  store <4 x i32> <i32 1, i32 1, i32 1, i32 1>, <4 x i32>* %51, align 16, !tbaa !5
  %52 = or i64 %26, 40
  %53 = getelementptr inbounds i32, i32* %10, i64 %52
  %54 = bitcast i32* %53 to <4 x i32>*
  store <4 x i32> <i32 1, i32 1, i32 1, i32 1>, <4 x i32>* %54, align 16, !tbaa !5
  %55 = getelementptr inbounds i32, i32* %53, i64 4
  %56 = bitcast i32* %55 to <4 x i32>*
  store <4 x i32> <i32 1, i32 1, i32 1, i32 1>, <4 x i32>* %56, align 16, !tbaa !5
  %57 = or i64 %26, 48
  %58 = getelementptr inbounds i32, i32* %10, i64 %57
  %59 = bitcast i32* %58 to <4 x i32>*
  store <4 x i32> <i32 1, i32 1, i32 1, i32 1>, <4 x i32>* %59, align 16, !tbaa !5
  %60 = getelementptr inbounds i32, i32* %58, i64 4
  %61 = bitcast i32* %60 to <4 x i32>*
  store <4 x i32> <i32 1, i32 1, i32 1, i32 1>, <4 x i32>* %61, align 16, !tbaa !5
  %62 = or i64 %26, 56
  %63 = getelementptr inbounds i32, i32* %10, i64 %62
  %64 = bitcast i32* %63 to <4 x i32>*
  store <4 x i32> <i32 1, i32 1, i32 1, i32 1>, <4 x i32>* %64, align 16, !tbaa !5
  %65 = getelementptr inbounds i32, i32* %63, i64 4
  %66 = bitcast i32* %65 to <4 x i32>*
  store <4 x i32> <i32 1, i32 1, i32 1, i32 1>, <4 x i32>* %66, align 16, !tbaa !5
  %67 = add nuw i64 %26, 64
  %68 = add i64 %27, -8
  %69 = icmp eq i64 %68, 0
  br i1 %69, label %70, label %25, !llvm.loop !9

70:                                               ; preds = %25, %16
  %71 = phi i64 [ 0, %16 ], [ %67, %25 ]
  %72 = icmp eq i64 %21, 0
  br i1 %72, label %83, label %73

73:                                               ; preds = %70, %73
  %74 = phi i64 [ %80, %73 ], [ %71, %70 ]
  %75 = phi i64 [ %81, %73 ], [ %21, %70 ]
  %76 = getelementptr inbounds i32, i32* %10, i64 %74
  %77 = bitcast i32* %76 to <4 x i32>*
  store <4 x i32> <i32 1, i32 1, i32 1, i32 1>, <4 x i32>* %77, align 16, !tbaa !5
  %78 = getelementptr inbounds i32, i32* %76, i64 4
  %79 = bitcast i32* %78 to <4 x i32>*
  store <4 x i32> <i32 1, i32 1, i32 1, i32 1>, <4 x i32>* %79, align 16, !tbaa !5
  %80 = add nuw i64 %74, 8
  %81 = add i64 %75, -1
  %82 = icmp eq i64 %81, 0
  br i1 %82, label %83, label %73, !llvm.loop !12

83:                                               ; preds = %73, %70
  %84 = icmp eq i64 %17, %14
  br i1 %84, label %87, label %85

85:                                               ; preds = %12, %83
  %86 = phi i64 [ 0, %12 ], [ %17, %83 ]
  br label %92

87:                                               ; preds = %92, %83
  %88 = icmp sgt i32 %4, 2
  br i1 %88, label %89, label %151

89:                                               ; preds = %87
  %90 = call i32 @llvm.smax.i32(i32 %6, i32 2)
  %91 = zext i32 %90 to i64
  br label %97

92:                                               ; preds = %85, %92
  %93 = phi i64 [ %95, %92 ], [ %86, %85 ]
  %94 = getelementptr inbounds i32, i32* %10, i64 %93
  store i32 1, i32* %94, align 4, !tbaa !5
  %95 = add nuw nsw i64 %93, 1
  %96 = icmp eq i64 %95, %14
  br i1 %96, label %87, label %92, !llvm.loop !14

97:                                               ; preds = %89, %116
  %98 = phi i64 [ 1, %89 ], [ %117, %116 ]
  %99 = icmp ugt i64 %98, 2
  br i1 %99, label %100, label %116

100:                                              ; preds = %97
  %101 = trunc i64 %98 to i32
  %102 = shl i32 %101, 1
  %103 = or i32 %102, 1
  br label %109

104:                                              ; preds = %116
  %105 = icmp sgt i32 %4, 4
  br i1 %105, label %119, label %151

106:                                              ; preds = %109
  %107 = zext i32 %113 to i64
  %108 = icmp eq i64 %98, %107
  br i1 %108, label %116, label %109, !llvm.loop !16

109:                                              ; preds = %100, %106
  %110 = phi i32 [ %113, %106 ], [ 2, %100 ]
  %111 = urem i32 %103, %110
  %112 = icmp eq i32 %111, 0
  %113 = add nuw nsw i32 %110, 1
  br i1 %112, label %114, label %106

114:                                              ; preds = %109
  %115 = getelementptr inbounds i32, i32* %10, i64 %98
  store i32 0, i32* %115, align 4, !tbaa !5
  br label %116

116:                                              ; preds = %106, %97, %114
  %117 = add nuw nsw i64 %98, 1
  %118 = icmp eq i64 %117, %91
  br i1 %118, label %104, label %97, !llvm.loop !17

119:                                              ; preds = %104, %140
  %120 = phi i32 [ %141, %140 ], [ %4, %104 ]
  %121 = phi i64 [ %143, %140 ], [ 2, %104 ]
  %122 = phi i32 [ %142, %140 ], [ 0, %104 ]
  %123 = phi i32 [ %144, %140 ], [ 2, %104 ]
  %124 = add nsw i64 %121, -1
  %125 = getelementptr inbounds i32, i32* %10, i64 %124
  %126 = load i32, i32* %125, align 4, !tbaa !5
  %127 = icmp eq i32 %126, 1
  br i1 %127, label %128, label %140

128:                                              ; preds = %119
  %129 = getelementptr inbounds i32, i32* %10, i64 %121
  %130 = load i32, i32* %129, align 4, !tbaa !5
  %131 = icmp eq i32 %130, 1
  br i1 %131, label %132, label %140

132:                                              ; preds = %128
  %133 = shl nuw nsw i32 %123, 1
  %134 = or i32 %133, 1
  %135 = trunc i64 %121 to i32
  %136 = shl i32 %135, 1
  %137 = add i32 %136, -1
  %138 = call i32 (i8*, ...) @printf(i8* nonnull dereferenceable(1) getelementptr inbounds ([7 x i8], [7 x i8]* @.str.1, i64 0, i64 0), i32 %137, i32 %134)
  %139 = load i32, i32* %1, align 4, !tbaa !5
  br label %140

140:                                              ; preds = %119, %128, %132
  %141 = phi i32 [ %139, %132 ], [ %120, %128 ], [ %120, %119 ]
  %142 = phi i32 [ 1, %132 ], [ %122, %128 ], [ %122, %119 ]
  %143 = add nuw nsw i64 %121, 1
  %144 = add nuw nsw i32 %123, 1
  %145 = add nsw i32 %141, 1
  %146 = sdiv i32 %145, 2
  %147 = sext i32 %146 to i64
  %148 = icmp slt i64 %143, %147
  br i1 %148, label %119, label %149, !llvm.loop !18

149:                                              ; preds = %140
  %150 = icmp eq i32 %142, 0
  br i1 %150, label %151, label %153

151:                                              ; preds = %0, %87, %104, %149
  %152 = call i32 (i8*, ...) @printf(i8* nonnull dereferenceable(1) getelementptr inbounds ([6 x i8], [6 x i8]* @.str.2, i64 0, i64 0))
  br label %153

153:                                              ; preds = %151, %149
  call void @free(i8* %9) #6
  call void @llvm.lifetime.end.p0i8(i64 4, i8* nonnull %2) #6
  ret i32 0
}

; Function Attrs: argmemonly mustprogress nofree nosync nounwind willreturn
declare void @llvm.lifetime.start.p0i8(i64 immarg, i8* nocapture) #1

; Function Attrs: nofree nounwind
declare noundef i32 @__isoc99_scanf(i8* nocapture noundef readonly, ...) local_unnamed_addr #2

; Function Attrs: inaccessiblememonly mustprogress nofree nounwind willreturn
declare noalias noundef align 16 i8* @malloc(i64 noundef) local_unnamed_addr #3

; Function Attrs: nofree nounwind
declare noundef i32 @printf(i8* nocapture noundef readonly, ...) local_unnamed_addr #2

; Function Attrs: inaccessiblemem_or_argmemonly mustprogress nounwind willreturn
declare void @free(i8* nocapture noundef) local_unnamed_addr #4

; Function Attrs: argmemonly mustprogress nofree nosync nounwind willreturn
declare void @llvm.lifetime.end.p0i8(i64 immarg, i8* nocapture) #1

; Function Attrs: nofree nosync nounwind readnone speculatable willreturn
declare i32 @llvm.smax.i32(i32, i32) #5


!llvm.module.flags = !{!0, !1, !2, !3}
!llvm.ident = !{!4}

!0 = !{i32 1, !"wchar_size", i32 4}
!1 = !{i32 7, !"PIC Level", i32 2}
!2 = !{i32 7, !"PIE Level", i32 2}
!3 = !{i32 7, !"uwtable", i32 1}
!4 = !{!"clang version 13.0.0"}
!5 = !{!6, !6, i64 0}
!6 = !{!"int", !7, i64 0}
!7 = !{!"omnipotent char", !8, i64 0}
!8 = !{!"Simple C/C++ TBAA"}
!9 = distinct !{!9, !10, !11}
!10 = !{!"llvm.loop.mustprogress"}
!11 = !{!"llvm.loop.isvectorized", i32 1}
!12 = distinct !{!12, !13}
!13 = !{!"llvm.loop.unroll.disable"}
!14 = distinct !{!14, !10, !15, !11}
!15 = !{!"llvm.loop.unroll.runtime.disable"}
!16 = distinct !{!16, !10}
!17 = distinct !{!17, !10}
!18 = distinct !{!18, !10}
